target datalayout = "e-m:e-p270:32:32-p271:32:32-p272:64:64-i64:64-i128:128-f80:128-n8:16:32:64-S128"
target triple = "x86_64-unknown-linux-gnu"

%"class.google::protobuf::internal::InternalMetadata" = type { i64 }
%"class.google::protobuf::internal::CachedSize" = type { i32 }
%"class.google::protobuf::Message" = type { %"class.google::protobuf::MessageLite" }
%"class.google::protobuf::MessageLite" = type { ptr, %"class.google::protobuf::internal::InternalMetadata" }
%"class.google::protobuf::Value" = type { %"class.google::protobuf::Message", %union.anon.5 }
%union.anon.5 = type { %"struct.google::protobuf::Value::Impl_" }
%"struct.google::protobuf::Value::Impl_" = type { %"union.google::protobuf::Value::Impl_::KindUnion", %"class.google::protobuf::internal::CachedSize", [1 x i32] }
%"union.google::protobuf::Value::Impl_::KindUnion" = type { double }

@_ZN6google8protobuf6StructD1Ev = unnamed_addr alias void (ptr), ptr @_ZN6google8protobuf6StructD2Ev
@_ZN6google8protobuf9ListValueD1Ev = unnamed_addr alias void (ptr), ptr @_ZN6google8protobuf9ListValueD2Ev

; Function Attrs: mustprogress nounwind uwtable
define linkonce_odr hidden noundef ptr @_ZNK6google8protobuf8internal16InternalMetadata8PtrValueINS0_5ArenaEEEPT_v(ptr noundef nonnull align 8 dereferenceable(8) %this) #5 comdat align 2 {
entry:
  %this.addr = alloca ptr, align 8
  store ptr %this, ptr %this.addr, align 8
  %this1 = load ptr, ptr %this.addr, align 8
  %ptr_ = getelementptr inbounds %"class.google::protobuf::internal::InternalMetadata", ptr %this1, i32 0, i32 0
  %0 = load i64, ptr %ptr_, align 8
  %and = and i64 %0, -2
  %1 = inttoptr i64 %and to ptr
  ret ptr %1
}

; Function Attrs: mustprogress nounwind uwtable
define linkonce_odr hidden noundef ptr @_ZNK6google8protobuf8internal16InternalMetadata8PtrValueINS2_13ContainerBaseEEEPT_v(ptr noundef nonnull align 8 dereferenceable(8) %this) #5 comdat align 2 {
entry:
  %this.addr = alloca ptr, align 8
  store ptr %this, ptr %this.addr, align 8
  %this1 = load ptr, ptr %this.addr, align 8
  %ptr_ = getelementptr inbounds %"class.google::protobuf::internal::InternalMetadata", ptr %this1, i32 0, i32 0
  %0 = load i64, ptr %ptr_, align 8
  %and = and i64 %0, -2
  %1 = inttoptr i64 %and to ptr
  ret ptr %1
}

; Function Attrs: mustprogress uwtable
define linkonce_odr hidden noundef ptr @_ZNK6google8protobuf11MessageLite8GetArenaEv(ptr noundef nonnull align 8 dereferenceable(16) %this) #4 comdat align 2 {
entry:
  %this.addr.i4.i = alloca ptr, align 8
  %this.addr.i.i = alloca ptr, align 8
  %retval.i = alloca ptr, align 8
  %this.addr.i = alloca ptr, align 8
  %this.addr = alloca ptr, align 8
  store ptr %this, ptr %this.addr, align 8
  %this1 = load ptr, ptr %this.addr, align 8
  %_internal_metadata_ = getelementptr inbounds %"class.google::protobuf::MessageLite", ptr %this1, i32 0, i32 1
  store ptr %_internal_metadata_, ptr %this.addr.i, align 8
  %this1.i = load ptr, ptr %this.addr.i, align 8
  store ptr %this1.i, ptr %this.addr.i.i, align 8
  %this1.i.i = load ptr, ptr %this.addr.i.i, align 8
  store ptr %this1.i.i, ptr %this.addr.i4.i, align 8
  %this1.i5.i = load ptr, ptr %this.addr.i4.i, align 8
  %0 = load i64, ptr %this1.i5.i, align 8
  %and.i.i = and i64 %0, 1
  %tobool.i.i = icmp ne i64 %and.i.i, 0
  br i1 %tobool.i.i, label %if.then.i, label %if.else.i

if.then.i:                                        ; preds = %entry
  %call2.i = call noundef ptr @_ZNK6google8protobuf8internal16InternalMetadata8PtrValueINS2_13ContainerBaseEEEPT_v(ptr noundef nonnull align 8 dereferenceable(8) %this1.i)
  %1 = load ptr, ptr %call2.i, align 8
  store ptr %1, ptr %retval.i, align 8
  br label %_ZNK6google8protobuf8internal16InternalMetadata5arenaEv.exit

if.else.i:                                        ; preds = %entry
  %call3.i = call noundef ptr @_ZNK6google8protobuf8internal16InternalMetadata8PtrValueINS0_5ArenaEEEPT_v(ptr noundef nonnull align 8 dereferenceable(8) %this1.i)
  store ptr %call3.i, ptr %retval.i, align 8
  br label %_ZNK6google8protobuf8internal16InternalMetadata5arenaEv.exit

_ZNK6google8protobuf8internal16InternalMetadata5arenaEv.exit: ; preds = %if.else.i, %if.then.i
  %2 = load ptr, ptr %retval.i, align 8
  ret ptr %2
}

; Function Attrs: mustprogress nounwind uwtable
define linkonce_odr hidden noundef i32 @_ZNK6google8protobuf5Value9kind_caseEv(ptr noundef nonnull align 8 dereferenceable(32) %this) #5 comdat align 2 {
entry:
  %this.addr = alloca ptr, align 8
  store ptr %this, ptr %this.addr, align 8
  %this1 = load ptr, ptr %this.addr, align 8
  %0 = getelementptr inbounds %"class.google::protobuf::Value", ptr %this1, i32 0, i32 1
  %_oneof_case_ = getelementptr inbounds %"struct.google::protobuf::Value::Impl_", ptr %0, i32 0, i32 2
  %arrayidx = getelementptr inbounds [1 x i32], ptr %_oneof_case_, i64 0, i64 0
  %1 = load i32, ptr %arrayidx, align 4
  ret i32 %1
}

; Function Attrs: mustprogress uwtable
define void @_ZN6google8protobuf5Value10clear_kindEv(ptr noundef nonnull align 8 dereferenceable(32) %this) #4 align 2 {
entry:
  %this.addr = alloca ptr, align 8
  store ptr %this, ptr %this.addr, align 8
  %this1 = load ptr, ptr %this.addr, align 8
  %call = call noundef i32 @_ZNK6google8protobuf5Value9kind_caseEv(ptr noundef nonnull align 8 dereferenceable(32) %this1)
  switch i32 %call, label %sw.epilog [
    i32 1, label %sw.bb
    i32 2, label %sw.bb2
    i32 3, label %sw.bb3
    i32 4, label %sw.bb4
    i32 5, label %sw.bb5
    i32 6, label %sw.bb8
    i32 0, label %sw.bb17
  ]

sw.bb:                                            ; preds = %entry
  br label %sw.epilog

sw.bb2:                                           ; preds = %entry
  br label %sw.epilog

sw.bb3:                                           ; preds = %entry
  %0 = getelementptr inbounds %"class.google::protobuf::Value", ptr %this1, i32 0, i32 1
  %kind_ = getelementptr inbounds %"struct.google::protobuf::Value::Impl_", ptr %0, i32 0, i32 0
  call void @_ZN6google8protobuf8internal14ArenaStringPtr7DestroyEv(ptr noundef nonnull align 8 dereferenceable(8) %kind_)
  br label %sw.epilog

sw.bb4:                                           ; preds = %entry
  br label %sw.epilog

sw.bb5:                                           ; preds = %entry
  %call6 = call noundef ptr @_ZNK6google8protobuf11MessageLite8GetArenaEv(ptr noundef nonnull align 8 dereferenceable(16) %this1)
  %cmp = icmp eq ptr %call6, null
  br i1 %cmp, label %if.then, label %if.end

if.then:                                          ; preds = %sw.bb5
  %1 = getelementptr inbounds %"class.google::protobuf::Value", ptr %this1, i32 0, i32 1
  %kind_7 = getelementptr inbounds %"struct.google::protobuf::Value::Impl_", ptr %1, i32 0, i32 0
  %2 = load ptr, ptr %kind_7, align 8
  %isnull = icmp eq ptr %2, null
  br i1 %isnull, label %delete.end, label %delete.notnull

delete.notnull:                                   ; preds = %if.then
  call void @_ZN6google8protobuf6StructD1Ev(ptr noundef nonnull align 8 dereferenceable(72) %2) #3
  call void @_ZdlPv(ptr noundef %2) #18
  br label %delete.end

delete.end:                                       ; preds = %delete.notnull, %if.then
  br label %if.end

if.end:                                           ; preds = %delete.end, %sw.bb5
  br label %sw.epilog

sw.bb8:                                           ; preds = %entry
  %call9 = call noundef ptr @_ZNK6google8protobuf11MessageLite8GetArenaEv(ptr noundef nonnull align 8 dereferenceable(16) %this1)
  %cmp10 = icmp eq ptr %call9, null
  br i1 %cmp10, label %if.then11, label %if.end16

if.then11:                                        ; preds = %sw.bb8
  %3 = getelementptr inbounds %"class.google::protobuf::Value", ptr %this1, i32 0, i32 1
  %kind_12 = getelementptr inbounds %"struct.google::protobuf::Value::Impl_", ptr %3, i32 0, i32 0
  %4 = load ptr, ptr %kind_12, align 8
  %isnull13 = icmp eq ptr %4, null
  br i1 %isnull13, label %delete.end15, label %delete.notnull14

delete.notnull14:                                 ; preds = %if.then11
  call void @_ZN6google8protobuf9ListValueD1Ev(ptr noundef nonnull align 8 dereferenceable(48) %4) #3
  call void @_ZdlPv(ptr noundef %4) #18
  br label %delete.end15

delete.end15:                                     ; preds = %delete.notnull14, %if.then11
  br label %if.end16

if.end16:                                         ; preds = %delete.end15, %sw.bb8
  br label %sw.epilog

sw.bb17:                                          ; preds = %entry
  br label %sw.epilog

sw.epilog:                                        ; preds = %sw.bb17, %if.end16, %if.end, %sw.bb4, %sw.bb3, %sw.bb2, %sw.bb, %entry
  %5 = getelementptr inbounds %"class.google::protobuf::Value", ptr %this1, i32 0, i32 1
  %_oneof_case_ = getelementptr inbounds %"struct.google::protobuf::Value::Impl_", ptr %5, i32 0, i32 2
  %arrayidx = getelementptr inbounds [1 x i32], ptr %_oneof_case_, i64 0, i64 0
  store i32 0, ptr %arrayidx, align 4
  ret void
}