; Function Attrs: mustprogress uwtable
define void @_ZN6google8protobuf5Value10clear_kindEv(ptr noundef nonnull align 8 dereferenceable(32) %this) local_unnamed_addr #3 align 2 {
entry:
  %_oneof_case_.i = getelementptr inbounds i8, ptr %this, i64 28
  %0 = load i32, ptr %_oneof_case_.i, align 4
  switch i32 %0, label %sw.epilog [
    i32 6, label %sw.bb8
    i32 5, label %sw.bb5
    i32 3, label %sw.bb3
  ]

sw.bb3:                                           ; preds = %entry
  %1 = getelementptr inbounds i8, ptr %this, i64 16
  tail call void @_ZN6google8protobuf8internal14ArenaStringPtr7DestroyEv(ptr noundef nonnull align 8 dereferenceable(8) %1)
  br label %sw.epilog

sw.bb5:                                           ; preds = %entry
  %_internal_metadata_.i = getelementptr inbounds i8, ptr %this, i64 8
  %2 = load i64, ptr %_internal_metadata_.i, align 8
  %and.i.i.i = and i64 %2, 1
  %tobool.i.i.not.i = icmp eq i64 %and.i.i.i, 0
  br i1 %tobool.i.i.not.i, label %if.else.i.i, label %if.then.i.i

if.then.i.i:                                      ; preds = %sw.bb5
  %and.i.i = and i64 %2, -2
  %3 = inttoptr i64 %and.i.i to ptr
  %4 = load ptr, ptr %3, align 8
  br label %_ZNK6google8protobuf11MessageLite8GetArenaEv.exit

if.else.i.i:                                      ; preds = %sw.bb5
  %5 = inttoptr i64 %2 to ptr
  br label %_ZNK6google8protobuf11MessageLite8GetArenaEv.exit

_ZNK6google8protobuf11MessageLite8GetArenaEv.exit: ; preds = %if.then.i.i, %if.else.i.i
  %retval.i.0.i = phi ptr [ %4, %if.then.i.i ], [ %5, %if.else.i.i ]
  %cmp = icmp eq ptr %retval.i.0.i, null
  br i1 %cmp, label %if.then, label %sw.epilog

if.then:                                          ; preds = %_ZNK6google8protobuf11MessageLite8GetArenaEv.exit
  %6 = getelementptr inbounds i8, ptr %this, i64 16
  %7 = load ptr, ptr %6, align 8
  %isnull = icmp eq ptr %7, null
  br i1 %isnull, label %sw.epilog, label %delete.notnull

delete.notnull:                                   ; preds = %if.then
  tail call void @_ZN6google8protobuf6StructD1Ev(ptr noundef nonnull align 8 dereferenceable(72) %7) #23
  tail call void @_ZdlPv(ptr noundef nonnull %7) #25
  br label %sw.epilog

sw.bb8:                                           ; preds = %entry
  %_internal_metadata_.i2 = getelementptr inbounds i8, ptr %this, i64 8
  %8 = load i64, ptr %_internal_metadata_.i2, align 8
  %and.i.i.i3 = and i64 %8, 1
  %tobool.i.i.not.i4 = icmp eq i64 %and.i.i.i3, 0
  br i1 %tobool.i.i.not.i4, label %if.else.i.i8, label %if.then.i.i5

if.then.i.i5:                                     ; preds = %sw.bb8
  %and.i.i6 = and i64 %8, -2
  %9 = inttoptr i64 %and.i.i6 to ptr
  %10 = load ptr, ptr %9, align 8
  br label %_ZNK6google8protobuf11MessageLite8GetArenaEv.exit9

if.else.i.i8:                                     ; preds = %sw.bb8
  %11 = inttoptr i64 %8 to ptr
  br label %_ZNK6google8protobuf11MessageLite8GetArenaEv.exit9

_ZNK6google8protobuf11MessageLite8GetArenaEv.exit9: ; preds = %if.then.i.i5, %if.else.i.i8
  %retval.i.0.i7 = phi ptr [ %10, %if.then.i.i5 ], [ %11, %if.else.i.i8 ]
  %cmp10 = icmp eq ptr %retval.i.0.i7, null
  br i1 %cmp10, label %if.then11, label %sw.epilog

if.then11:                                        ; preds = %_ZNK6google8protobuf11MessageLite8GetArenaEv.exit9
  %12 = getelementptr inbounds i8, ptr %this, i64 16
  %13 = load ptr, ptr %12, align 8
  %isnull13 = icmp eq ptr %13, null
  br i1 %isnull13, label %sw.epilog, label %delete.notnull14

delete.notnull14:                                 ; preds = %if.then11
  tail call void @_ZN6google8protobuf9ListValueD1Ev(ptr noundef nonnull align 8 dereferenceable(48) %13) #23
  tail call void @_ZdlPv(ptr noundef nonnull %13) #25
  br label %sw.epilog

sw.epilog:                                        ; preds = %_ZNK6google8protobuf11MessageLite8GetArenaEv.exit9, %delete.notnull14, %if.then11, %_ZNK6google8protobuf11MessageLite8GetArenaEv.exit, %delete.notnull, %if.then, %sw.bb3, %entry
  store i32 0, ptr %_oneof_case_.i, align 4
  ret void
}